#include <math.h>
#include <stdio.h>
#include <stdlib.h>
#include <string.h>

int fei(int n)
{
    if(n==1||n==2)
    return 1;
    else 
    return fei(n-1)+fei(n-2);
}
int main()
{ 
    int n;
    scanf("%d",&n);
    for(int i=0;i<n;i++)
    {
            int p=0;
            scanf("%d",&p);
            int q=fei(p);
            printf("%d\n",q);
    }
}